target datalayout = "e-m:e-p270:32:32-p271:32:32-p272:64:64-i64:64-i128:128-f80:128-n8:16:32:64-S128"
target triple = "x86_64-pc-linux-gnu"

%struct.DepsLog = type { i8, ptr, %"class.std::__cxx11::basic_string", %"class.std::vector", %"class.std::vector.3" }
%"class.std::__cxx11::basic_string" = type { %"struct.std::__cxx11::basic_string<char>::_Alloc_hider", i64, %union.anon }
%"struct.std::__cxx11::basic_string<char>::_Alloc_hider" = type { ptr }
%union.anon = type { i64, [8 x i8] }
%"class.std::vector" = type { %"struct.std::_Vector_base" }
%"struct.std::_Vector_base" = type { %"struct.std::_Vector_base<Node *, std::allocator<Node *>>::_Vector_impl" }
%"struct.std::_Vector_base<Node *, std::allocator<Node *>>::_Vector_impl" = type { %"struct.std::_Vector_base<Node *, std::allocator<Node *>>::_Vector_impl_data" }
%"struct.std::_Vector_base<Node *, std::allocator<Node *>>::_Vector_impl_data" = type { ptr, ptr, ptr }
%"class.std::vector.3" = type { %"struct.std::_Vector_base.4" }
%"struct.std::_Vector_base.4" = type { %"struct.std::_Vector_base<DepsLog::Deps *, std::allocator<DepsLog::Deps *>>::_Vector_impl" }
%"struct.std::_Vector_base<DepsLog::Deps *, std::allocator<DepsLog::Deps *>>::_Vector_impl" = type { %"struct.std::_Vector_base<DepsLog::Deps *, std::allocator<DepsLog::Deps *>>::_Vector_impl_data" }
%"struct.std::_Vector_base<DepsLog::Deps *, std::allocator<DepsLog::Deps *>>::_Vector_impl_data" = type { ptr, ptr, ptr }

; Function Attrs: mustprogress uwtable
define dso_local void @_ZN7DepsLog5CloseEv(ptr noundef nonnull align 8 dereferenceable(96) %0) #1 align 2 {
  %2 = alloca ptr, align 8
  store ptr %0, ptr %2, align 8, !tbaa !4
  %3 = load ptr, ptr %2, align 8
  %4 = call noundef zeroext i1 @_ZN7DepsLog20OpenForWriteIfNeededEv(ptr noundef nonnull align 8 dereferenceable(96) %3)
  %5 = getelementptr inbounds nuw %struct.DepsLog, ptr %3, i32 0, i32 1
  %6 = load ptr, ptr %5, align 8, !tbaa !9
  %7 = icmp ne ptr %6, null
  br i1 %7, label %8, label %12

8:                                                ; preds = %1
  %9 = getelementptr inbounds nuw %struct.DepsLog, ptr %3, i32 0, i32 1
  %10 = load ptr, ptr %9, align 8, !tbaa !9
  %11 = call i32 @fclose(ptr noundef %10)
  br label %12

12:                                               ; preds = %8, %1
  %13 = getelementptr inbounds nuw %struct.DepsLog, ptr %3, i32 0, i32 1
  store ptr null, ptr %13, align 8, !tbaa !9
  ret void
}